; Function Attrs: nounwind sspstrong uwtable
define dso_local void @tcg_gen_movcond_i32(i32 noundef %0, ptr noundef %1, ptr noundef %2, ptr noundef %3, ptr noundef %4, ptr noundef %5) local_unnamed_addr #2 {
  switch i32 %0, label %29 [
    i32 1, label %7
    i32 0, label %18
  ]

7:                                                ; preds = %6
  %.not.i = icmp eq ptr %1, %4
  br i1 %.not.i, label %tcg_gen_mov_i32.exit, label %8

8:                                                ; preds = %7
  %9 = tail call align 8 ptr @llvm.threadlocal.address.p0(ptr align 8 @tcg_ctx)
  %10 = load ptr, ptr %9, align 8
  %11 = ptrtoint ptr %1 to i64
  %12 = getelementptr inbounds nuw i8, ptr %10, i64 %11
  %13 = ptrtoint ptr %12 to i64
  %14 = ptrtoint ptr %4 to i64
  %15 = getelementptr inbounds nuw i8, ptr %10, i64 %14
  %16 = ptrtoint ptr %15 to i64
  %17 = tail call ptr @tcg_gen_op2(i32 noundef 5, i32 noundef 0, i64 noundef %13, i64 noundef %16)
  br label %tcg_gen_mov_i32.exit

18:                                               ; preds = %6
  %.not.i11 = icmp eq ptr %1, %5
  br i1 %.not.i11, label %tcg_gen_mov_i32.exit, label %19

19:                                               ; preds = %18
  %20 = tail call align 8 ptr @llvm.threadlocal.address.p0(ptr align 8 @tcg_ctx)
  %21 = load ptr, ptr %20, align 8
  %22 = ptrtoint ptr %1 to i64
  %23 = getelementptr inbounds nuw i8, ptr %21, i64 %22
  %24 = ptrtoint ptr %23 to i64
  %25 = ptrtoint ptr %5 to i64
  %26 = getelementptr inbounds nuw i8, ptr %21, i64 %25
  %27 = ptrtoint ptr %26 to i64
  %28 = tail call ptr @tcg_gen_op2(i32 noundef 5, i32 noundef 0, i64 noundef %24, i64 noundef %27)
  br label %tcg_gen_mov_i32.exit

29:                                               ; preds = %6
  %30 = zext i32 %0 to i64
  %31 = tail call align 8 ptr @llvm.threadlocal.address.p0(ptr align 8 @tcg_ctx)
  %32 = load ptr, ptr %31, align 8
  %33 = ptrtoint ptr %1 to i64
  %34 = getelementptr inbounds nuw i8, ptr %32, i64 %33
  %35 = ptrtoint ptr %34 to i64
  %36 = ptrtoint ptr %2 to i64
  %37 = getelementptr inbounds nuw i8, ptr %32, i64 %36
  %38 = ptrtoint ptr %37 to i64
  %39 = ptrtoint ptr %3 to i64
  %40 = getelementptr inbounds nuw i8, ptr %32, i64 %39
  %41 = ptrtoint ptr %40 to i64
  %42 = ptrtoint ptr %4 to i64
  %43 = getelementptr inbounds nuw i8, ptr %32, i64 %42
  %44 = ptrtoint ptr %43 to i64
  %45 = ptrtoint ptr %5 to i64
  %46 = getelementptr inbounds nuw i8, ptr %32, i64 %45
  %47 = ptrtoint ptr %46 to i64
  %48 = tail call ptr @tcg_gen_op6(i32 noundef 8, i32 noundef 0, i64 noundef %35, i64 noundef %38, i64 noundef %41, i64 noundef %44, i64 noundef %47, i64 noundef range(i64 2, 4294967296) %30)
  br label %tcg_gen_mov_i32.exit

tcg_gen_mov_i32.exit:                             ; preds = %19, %18, %8, %7, %29
  ret void
}